target datalayout = "e-m:e-p270:32:32-p271:32:32-p272:64:64-i64:64-i128:128-f80:128-n8:16:32:64-S128"
target triple = "x86_64-pc-linux-gnu"

%struct.dt_lib_module_info_t = type { ptr, i32, ptr, i32, ptr }

; Function Attrs: nounwind uwtable
define internal void @free_module_info(ptr noundef %0, ptr noundef %1) #0 {
  %3 = alloca ptr, align 8
  %4 = alloca ptr, align 8
  %5 = alloca ptr, align 8
  store ptr %0, ptr %3, align 8, !tbaa !111
  store ptr %1, ptr %4, align 8, !tbaa !76
  call void @llvm.lifetime.start.p0(i64 8, ptr %5) #12
  %6 = load ptr, ptr %4, align 8, !tbaa !76
  store ptr %6, ptr %5, align 8, !tbaa !66
  %7 = load ptr, ptr %5, align 8, !tbaa !66
  %8 = getelementptr inbounds nuw %struct.dt_lib_module_info_t, ptr %7, i32 0, i32 0
  %9 = load ptr, ptr %8, align 8, !tbaa !73
  call void @g_free(ptr noundef %9)
  %10 = load ptr, ptr %5, align 8, !tbaa !66
  %11 = getelementptr inbounds nuw %struct.dt_lib_module_info_t, ptr %10, i32 0, i32 2
  %12 = load ptr, ptr %11, align 8, !tbaa !78
  call void @free(ptr noundef %12) #12
  %13 = load ptr, ptr %5, align 8, !tbaa !66
  call void @free(ptr noundef %13) #12
  call void @llvm.lifetime.end.p0(i64 8, ptr %5) #12
  ret void
}