; Function Attrs: nounwind uwtable
define internal void @free_module_info(ptr readnone captures(none) %0, ptr noundef captures(none) %1) #0 {
  %3 = load ptr, ptr %1, align 8, !tbaa !65
  tail call void @g_free(ptr noundef %3) #19
  %4 = getelementptr inbounds nuw i8, ptr %1, i64 16
  %5 = load ptr, ptr %4, align 8, !tbaa !70
  tail call void @free(ptr noundef %5) #19
  tail call void @free(ptr noundef %1) #19
  ret void
}